ccopy_reg
_reconstructor
p0
(csklearn.tree.tree
DecisionTreeClassifier
p1
c__builtin__
object
p2
Ntp3
Rp4
(dp5
S'splitter'
p6
S'best'
p7
sS'tree_'
p8
NsS'n_features_'
p9
NsS'n_outputs_'
p10
NsS'n_classes_'
p11
NsS'classes_'
p12
NsS'splitter_'
p13
NsS'min_samples_leaf'
p14
I1
sS'max_features'
p15
NsS'random_state'
p16
NsS'criterion'
p17
S'gini'
p18
sS'min_samples_split'
p19
I2
sS'max_depth'
p20
Nsb.