ccopy_reg
_reconstructor
p0
(csklearn.naive_bayes
GaussianNB
p1
c__builtin__
object
p2
Ntp3
Rp4
(dp5
S'sigma_'
p6
cnumpy.core.multiarray
_reconstruct
p7
(cnumpy
ndarray
p8
(I0
tp9
S'b'
p10
tp11
Rp12
(I1
(I2
I1
tp13
cnumpy
dtype
p14
(S'f8'
p15
I0
I1
tp16
Rp17
(I3
S'<'
p18
NNNI-1
I-1
I0
tp19
bI00
S'U,\x9b\xd764\xa4B\xd6\x07\x85\xc1_\xda%B'
p20
tp21
bsS'classes_'
p22
g7
(g8
(I0
tp23
g10
tp24
Rp25
(I1
(I2
tp26
g17
I00
S'\x00\x00\x00\x00\x00\x00\x00\x00\x00\x00\x00\x00\x00\x00\xf0?'
p27
tp28
bsS'class_prior_'
p29
g7
(g8
(I0
tp30
g10
tp31
Rp32
(I1
(I2
tp33
g17
I00
S'\xaf\xa1\xbc\x86\xf2\x1a\xea?Cy\r\xe55\x94\xc7?'
p34
tp35
bsS'theta_'
p36
g7
(g8
(I0
tp37
g10
tp38
Rp39
(I1
(I2
I1
tp40
g17
I00
S')\xa5\x94R\xef4%A\x92$I\x92\xbep\x15A'
p41
tp42
bsb.